target datalayout = "e-m:e-p270:32:32-p271:32:32-p272:64:64-i64:64-i128:128-f80:128-n8:16:32:64-S128"
target triple = "x86_64-pc-linux-gnu"

%struct.AVComplexDouble = type { double, double }
%struct.AVTXContext = type { i32, i32, ptr, ptr, ptr, ptr, [4 x ptr], i32, [4 x ptr], ptr, i32, i64, i32, float, double, ptr }

; Function Attrs: cold nounwind optsize uwtable
define internal i32 @ff_tx_fft_init_naive_small_double_c(ptr noundef %0, ptr noundef %1, i64 noundef %2, ptr noundef %3, i32 noundef %4, i32 noundef %5, ptr noundef %6) #0 {
  %8 = alloca i32, align 4
  %9 = alloca ptr, align 8
  %10 = alloca ptr, align 8
  %11 = alloca i64, align 8
  %12 = alloca ptr, align 8
  %13 = alloca i32, align 4
  %14 = alloca i32, align 4
  %15 = alloca ptr, align 8
  %16 = alloca double, align 8
  %17 = alloca i32, align 4
  %18 = alloca i32, align 4
  %19 = alloca i32, align 4
  %20 = alloca double, align 8
  %21 = alloca %struct.AVComplexDouble, align 8
  store ptr %0, ptr %9, align 8, !tbaa !17
  store ptr %1, ptr %10, align 8, !tbaa !60
  store i64 %2, ptr %11, align 8, !tbaa !30
  store ptr %3, ptr %12, align 8, !tbaa !61
  store i32 %4, ptr %13, align 4, !tbaa !4
  store i32 %5, ptr %14, align 4, !tbaa !4
  store ptr %6, ptr %15, align 8, !tbaa !8
  call void @llvm.lifetime.start.p0(i64 8, ptr %16) #10
  %22 = load ptr, ptr %9, align 8, !tbaa !17
  %23 = getelementptr inbounds nuw %struct.AVTXContext, ptr %22, i32 0, i32 1
  %24 = load i32, ptr %23, align 4, !tbaa !84
  %25 = icmp ne i32 %24, 0
  br i1 %25, label %26, label %30

26:                                               ; preds = %7
  %27 = load i32, ptr %13, align 4, !tbaa !4
  %28 = sitofp i32 %27 to double
  %29 = fdiv nsz double 0x401921FB54442D18, %28
  br label %34

30:                                               ; preds = %7
  %31 = load i32, ptr %13, align 4, !tbaa !4
  %32 = sitofp i32 %31 to double
  %33 = fdiv nsz double 0xC01921FB54442D18, %32
  br label %34

34:                                               ; preds = %30, %26
  %35 = phi nsz double [ %29, %26 ], [ %33, %30 ]
  store double %35, ptr %16, align 8, !tbaa !29
  %36 = load i32, ptr %13, align 4, !tbaa !4
  %37 = load i32, ptr %13, align 4, !tbaa !4
  %38 = mul nsw i32 %36, %37
  %39 = sext i32 %38 to i64
  %40 = mul i64 %39, 16
  %41 = call noalias ptr @av_malloc(i64 noundef %40)
  %42 = load ptr, ptr %9, align 8, !tbaa !17
  %43 = getelementptr inbounds nuw %struct.AVTXContext, ptr %42, i32 0, i32 3
  store ptr %41, ptr %43, align 8, !tbaa !31
  %44 = icmp ne ptr %41, null
  br i1 %44, label %46, label %45

45:                                               ; preds = %34
  store i32 -12, ptr %8, align 4
  store i32 1, ptr %17, align 4
  br label %88

46:                                               ; preds = %34
  call void @llvm.lifetime.start.p0(i64 4, ptr %18) #10
  store i32 0, ptr %18, align 4, !tbaa !4
  br label %47

47:                                               ; preds = %84, %46
  %48 = load i32, ptr %18, align 4, !tbaa !4
  %49 = load i32, ptr %13, align 4, !tbaa !4
  %50 = icmp slt i32 %48, %49
  br i1 %50, label %52, label %51

51:                                               ; preds = %47
  store i32 2, ptr %17, align 4
  call void @llvm.lifetime.end.p0(i64 4, ptr %18) #10
  br label %87

52:                                               ; preds = %47
  call void @llvm.lifetime.start.p0(i64 4, ptr %19) #10
  store i32 0, ptr %19, align 4, !tbaa !4
  br label %53

53:                                               ; preds = %80, %52
  %54 = load i32, ptr %19, align 4, !tbaa !4
  %55 = load i32, ptr %13, align 4, !tbaa !4
  %56 = icmp slt i32 %54, %55
  br i1 %56, label %58, label %57

57:                                               ; preds = %53
  store i32 5, ptr %17, align 4
  call void @llvm.lifetime.end.p0(i64 4, ptr %19) #10
  br label %83

58:                                               ; preds = %53
  call void @llvm.lifetime.start.p0(i64 8, ptr %20) #10
  %59 = load double, ptr %16, align 8, !tbaa !29
  %60 = load i32, ptr %18, align 4, !tbaa !4
  %61 = sitofp i32 %60 to double
  %62 = fmul nsz double %59, %61
  %63 = load i32, ptr %19, align 4, !tbaa !4
  %64 = sitofp i32 %63 to double
  %65 = fmul nsz double %62, %64
  store double %65, ptr %20, align 8, !tbaa !29
  %66 = load ptr, ptr %9, align 8, !tbaa !17
  %67 = getelementptr inbounds nuw %struct.AVTXContext, ptr %66, i32 0, i32 3
  %68 = load ptr, ptr %67, align 8, !tbaa !31
  %69 = load i32, ptr %18, align 4, !tbaa !4
  %70 = load i32, ptr %19, align 4, !tbaa !4
  %71 = mul nsw i32 %69, %70
  %72 = sext i32 %71 to i64
  %73 = getelementptr inbounds %struct.AVComplexDouble, ptr %68, i64 %72
  %74 = getelementptr inbounds nuw %struct.AVComplexDouble, ptr %21, i32 0, i32 0
  %75 = load double, ptr %20, align 8, !tbaa !29
  %76 = call nsz double @llvm.cos.f64(double %75)
  store double %76, ptr %74, align 8, !tbaa !32
  %77 = getelementptr inbounds nuw %struct.AVComplexDouble, ptr %21, i32 0, i32 1
  %78 = load double, ptr %20, align 8, !tbaa !29
  %79 = call nsz double @llvm.sin.f64(double %78)
  store double %79, ptr %77, align 8, !tbaa !34
  call void @llvm.memcpy.p0.p0.i64(ptr align 8 %73, ptr align 8 %21, i64 16, i1 false), !tbaa.struct !35
  call void @llvm.lifetime.end.p0(i64 8, ptr %20) #10
  br label %80

80:                                               ; preds = %58
  %81 = load i32, ptr %19, align 4, !tbaa !4
  %82 = add nsw i32 %81, 1
  store i32 %82, ptr %19, align 4, !tbaa !4
  br label %53, !llvm.loop !89

83:                                               ; preds = %57
  br label %84

84:                                               ; preds = %83
  %85 = load i32, ptr %18, align 4, !tbaa !4
  %86 = add nsw i32 %85, 1
  store i32 %86, ptr %18, align 4, !tbaa !4
  br label %47, !llvm.loop !90

87:                                               ; preds = %51
  store i32 0, ptr %8, align 4
  store i32 1, ptr %17, align 4
  br label %88

88:                                               ; preds = %87, %45
  call void @llvm.lifetime.end.p0(i64 8, ptr %16) #10
  %89 = load i32, ptr %8, align 4
  ret i32 %89
}